target datalayout = "e-m:e-p270:32:32-p271:32:32-p272:64:64-i64:64-i128:128-f80:128-n8:16:32:64-S128"
target triple = "x86_64-pc-linux-gnu"

@hf_zbee_aps_t2_btres_octet_sequence = internal global i32 0, align 4
@hf_zbee_aps_t2_btres_octet_sequence_length_requested = internal global i32 0, align 4
@hf_zbee_aps_t2_btres_status = internal global i32 0, align 4
@hf_zbee_aps_t2_btreq_octet_sequence_length = internal global i32 0, align 4
@ett_zbee_aps_t2 = internal global i32 0, align 4
@.str.525 = private unnamed_addr constant [23 x i8] c"ZigBee Test Profile #2\00", align 1

; Function Attrs: null_pointer_is_valid sspstrong uwtable
define internal i32 @dissect_zbee_t2(ptr noundef %0, ptr noundef %1, i16 noundef zeroext %2) #0 {
  %4 = alloca ptr, align 8
  %5 = alloca ptr, align 8
  %6 = alloca i16, align 2
  %7 = alloca i32, align 4
  %8 = alloca i8, align 1
  %9 = alloca ptr, align 8
  store ptr %0, ptr %4, align 8
  store ptr %1, ptr %5, align 8
  store i16 %2, ptr %6, align 2
  call void @llvm.lifetime.start.p0(i64 4, ptr %7) #9
  store i32 0, ptr %7, align 4
  call void @llvm.lifetime.start.p0(i64 1, ptr %8) #9
  call void @llvm.lifetime.start.p0(i64 8, ptr %9) #9
  %10 = load ptr, ptr %5, align 8
  %11 = load ptr, ptr %4, align 8
  %12 = load i32, ptr @ett_zbee_aps_t2, align 4
  %13 = call ptr @proto_tree_add_subtree(ptr noundef %10, ptr noundef %11, i32 noundef 0, i32 noundef -1, i32 noundef %12, ptr noundef null, ptr noundef @.str.525)
  store ptr %13, ptr %9, align 8
  %14 = load i16, ptr %6, align 2
  %15 = zext i16 %14 to i32
  switch i32 %15, label %60 [
    i32 84, label %16
    i32 28, label %47
  ]

16:                                               ; preds = %3
  %17 = load ptr, ptr %4, align 8
  %18 = load i32, ptr %7, align 4
  %19 = call zeroext i8 @tvb_get_uint8(ptr noundef %17, i32 noundef %18)
  store i8 %19, ptr %8, align 1
  %20 = load ptr, ptr %9, align 8
  %21 = load i32, ptr @hf_zbee_aps_t2_btres_octet_sequence_length_requested, align 4
  %22 = load ptr, ptr %4, align 8
  %23 = load i32, ptr %7, align 4
  %24 = load i8, ptr %8, align 1
  %25 = zext i8 %24 to i32
  %26 = call ptr @proto_tree_add_uint(ptr noundef %20, i32 noundef %21, ptr noundef %22, i32 noundef %23, i32 noundef 1, i32 noundef %25)
  %27 = load i32, ptr %7, align 4
  %28 = add i32 %27, 1
  store i32 %28, ptr %7, align 4
  %29 = load ptr, ptr %9, align 8
  %30 = load i32, ptr @hf_zbee_aps_t2_btres_status, align 4
  %31 = load ptr, ptr %4, align 8
  %32 = load i32, ptr %7, align 4
  %33 = call ptr @proto_tree_add_item(ptr noundef %29, i32 noundef %30, ptr noundef %31, i32 noundef %32, i32 noundef 1, i32 noundef -2147483648)
  %34 = load i32, ptr %7, align 4
  %35 = add i32 %34, 1
  store i32 %35, ptr %7, align 4
  %36 = load ptr, ptr %9, align 8
  %37 = load i32, ptr @hf_zbee_aps_t2_btres_octet_sequence, align 4
  %38 = load ptr, ptr %4, align 8
  %39 = load i32, ptr %7, align 4
  %40 = load i8, ptr %8, align 1
  %41 = zext i8 %40 to i32
  %42 = call ptr @proto_tree_add_item(ptr noundef %36, i32 noundef %37, ptr noundef %38, i32 noundef %39, i32 noundef %41, i32 noundef 0)
  %43 = load i8, ptr %8, align 1
  %44 = zext i8 %43 to i32
  %45 = load i32, ptr %7, align 4
  %46 = add i32 %45, %44
  store i32 %46, ptr %7, align 4
  br label %60

47:                                               ; preds = %3
  %48 = load ptr, ptr %4, align 8
  %49 = load i32, ptr %7, align 4
  %50 = call zeroext i8 @tvb_get_uint8(ptr noundef %48, i32 noundef %49)
  store i8 %50, ptr %8, align 1
  %51 = load ptr, ptr %9, align 8
  %52 = load i32, ptr @hf_zbee_aps_t2_btreq_octet_sequence_length, align 4
  %53 = load ptr, ptr %4, align 8
  %54 = load i32, ptr %7, align 4
  %55 = load i8, ptr %8, align 1
  %56 = zext i8 %55 to i32
  %57 = call ptr @proto_tree_add_uint(ptr noundef %51, i32 noundef %52, ptr noundef %53, i32 noundef %54, i32 noundef 1, i32 noundef %56)
  %58 = load i32, ptr %7, align 4
  %59 = add i32 %58, 1
  store i32 %59, ptr %7, align 4
  br label %60

60:                                               ; preds = %3, %47, %16
  %61 = load i32, ptr %7, align 4
  call void @llvm.lifetime.end.p0(i64 8, ptr %9) #9
  call void @llvm.lifetime.end.p0(i64 1, ptr %8) #9
  call void @llvm.lifetime.end.p0(i64 4, ptr %7) #9
  ret i32 %61
}