; Function Attrs: null_pointer_is_valid sspstrong uwtable
define internal fastcc range(i32 0, 258) i32 @dissect_zbee_t2(ptr noundef nonnull %0, ptr noundef %1, i16 noundef zeroext %2) unnamed_addr #0 {
  %4 = load i32, ptr @ett_zbee_aps_t2, align 4
  %5 = tail call ptr @proto_tree_add_subtree(ptr noundef %1, ptr noundef nonnull %0, i32 noundef 0, i32 noundef -1, i32 noundef %4, ptr noundef null, ptr noundef nonnull @.str.525)
  switch i16 %2, label %21 [
    i16 84, label %6
    i16 28, label %16
  ]

6:                                                ; preds = %3
  %7 = tail call zeroext i8 @tvb_get_uint8(ptr noundef nonnull %0, i32 noundef 0)
  %8 = load i32, ptr @hf_zbee_aps_t2_btres_octet_sequence_length_requested, align 4
  %9 = zext i8 %7 to i32
  %10 = tail call ptr @proto_tree_add_uint(ptr noundef %5, i32 noundef %8, ptr noundef nonnull %0, i32 noundef 0, i32 noundef 1, i32 noundef %9)
  %11 = load i32, ptr @hf_zbee_aps_t2_btres_status, align 4
  %12 = tail call ptr @proto_tree_add_item(ptr noundef %5, i32 noundef %11, ptr noundef nonnull %0, i32 noundef 1, i32 noundef 1, i32 noundef -2147483648)
  %13 = load i32, ptr @hf_zbee_aps_t2_btres_octet_sequence, align 4
  %14 = tail call ptr @proto_tree_add_item(ptr noundef %5, i32 noundef %13, ptr noundef nonnull %0, i32 noundef 2, i32 noundef %9, i32 noundef 0)
  %15 = add nuw nsw i32 %9, 2
  br label %21

16:                                               ; preds = %3
  %17 = tail call zeroext i8 @tvb_get_uint8(ptr noundef nonnull %0, i32 noundef 0)
  %18 = load i32, ptr @hf_zbee_aps_t2_btreq_octet_sequence_length, align 4
  %19 = zext i8 %17 to i32
  %20 = tail call ptr @proto_tree_add_uint(ptr noundef %5, i32 noundef %18, ptr noundef nonnull %0, i32 noundef 0, i32 noundef 1, i32 noundef %19)
  br label %21

21:                                               ; preds = %16, %6, %3
  %.0 = phi i32 [ 0, %3 ], [ 1, %16 ], [ %15, %6 ]
  ret i32 %.0
}